; Function Attrs: mustprogress uwtable
define void @_ZNK10open_spiel8deep_sea12DeepSeaState5CloneEv(ptr dead_on_unwind noalias nocapture writable writeonly sret(%"class.std::unique_ptr") align 8 %0, ptr noundef nonnull align 8 dereferenceable(160) %1) unnamed_addr #3 align 2 personality ptr @__gxx_personality_v0 {
  %3 = tail call noalias noundef nonnull dereferenceable(160) ptr @_Znwm(i64 noundef 160) #26
  invoke void @_ZN10open_spiel5StateC2ERKS0_(ptr noundef nonnull align 8 dereferenceable(60) %3, ptr noundef nonnull align 8 dereferenceable(60) %1)
          to label %.noexc unwind label %19

.noexc:                                           ; preds = %2
  store ptr getelementptr inbounds inrange(-16, 304) (i8, ptr @_ZTVN10open_spiel8deep_sea12DeepSeaStateE, i64 16), ptr %3, align 8
  %4 = getelementptr inbounds nuw i8, ptr %3, i64 60
  %5 = getelementptr inbounds nuw i8, ptr %1, i64 60
  tail call void @llvm.memcpy.p0.p0.i64(ptr noundef nonnull align 4 dereferenceable(12) %4, ptr noundef nonnull align 4 dereferenceable(12) %5, i64 12, i1 false)
  %6 = getelementptr inbounds nuw i8, ptr %3, i64 72
  %7 = getelementptr inbounds nuw i8, ptr %1, i64 72
  invoke void @_ZNSt6vectorIbSaIbEEC2ERKS1_(ptr noundef nonnull align 8 dereferenceable(40) %6, ptr noundef nonnull align 8 dereferenceable(40) %7)
          to label %8 unwind label %14

8:                                                ; preds = %.noexc
  %9 = getelementptr inbounds nuw i8, ptr %3, i64 112
  %10 = getelementptr inbounds nuw i8, ptr %1, i64 112
  %11 = load i64, ptr %10, align 8
  store i64 %11, ptr %9, align 8
  %12 = getelementptr inbounds nuw i8, ptr %3, i64 120
  %13 = getelementptr inbounds nuw i8, ptr %1, i64 120
  invoke void @_ZNSt6vectorIbSaIbEEC2ERKS1_(ptr noundef nonnull align 8 dereferenceable(40) %12, ptr noundef nonnull align 8 dereferenceable(40) %13)
          to label %_ZN10open_spiel8deep_sea12DeepSeaStateC2ERKS1_.exit unwind label %16

14:                                               ; preds = %.noexc
  %15 = landingpad { ptr, i32 }
          cleanup
  br label %18

16:                                               ; preds = %8
  %17 = landingpad { ptr, i32 }
          cleanup
  tail call void @_ZNSt6vectorIbSaIbEED2Ev(ptr noundef nonnull align 8 dereferenceable(40) %6) #24
  br label %18

18:                                               ; preds = %16, %14
  %.pn.i = phi { ptr, i32 } [ %17, %16 ], [ %15, %14 ]
  tail call void @_ZN10open_spiel5StateD2Ev(ptr noundef nonnull align 8 dereferenceable(60) %3) #24
  br label %.body

_ZN10open_spiel8deep_sea12DeepSeaStateC2ERKS1_.exit: ; preds = %8
  store ptr %3, ptr %0, align 8
  ret void

19:                                               ; preds = %2
  %20 = landingpad { ptr, i32 }
          cleanup
  br label %.body

.body:                                            ; preds = %18, %19
  %eh.lpad-body = phi { ptr, i32 } [ %20, %19 ], [ %.pn.i, %18 ]
  tail call void @_ZdlPvm(ptr noundef nonnull %3, i64 noundef 160) #27
  resume { ptr, i32 } %eh.lpad-body
}